target datalayout = "e-m:e-p270:32:32-p271:32:32-p272:64:64-i64:64-i128:128-f80:128-n8:16:32:64-S128"
target triple = "x86_64-pc-linux-gnu"

%struct.AVProbeData = type { ptr, ptr, i32, ptr }
%struct.AVFormatContext = type { ptr, ptr, ptr, ptr, ptr, i32, i32, ptr, i32, ptr, i32, ptr, ptr, i64, i64, i64, i32, i32, i32, i64, i64, ptr, i32, i32, ptr, i32, i32, i32, i32, ptr, i64, i32, i32, %struct.AVIOInterruptCB, i32, i32, i32, i32, i64, i32, i32, i32, i32, i32, i32, i32, i32, i32, i32, i32, i32, i64, i32, i32, i32, i32, i32, ptr, ptr, ptr, ptr, i32, ptr, ptr, ptr, ptr, i32, ptr, ptr, i64, ptr, ptr, ptr, i64 }
%struct.AVIOInterruptCB = type { ptr, ptr }
%struct.MTVDemuxContext = type { i32, i32, i32, i32, i32, i32, i32, i32, i32, i32, i32 }
%struct.AVStream = type { ptr, i32, i32, ptr, ptr, %struct.AVRational, i64, i64, i64, i32, i32, %struct.AVRational, ptr, %struct.AVRational, %struct.AVPacket, i32, %struct.AVRational, i32 }
%struct.AVPacket = type { ptr, i64, i64, ptr, i32, i32, i32, ptr, i32, i64, i64, ptr, ptr, %struct.AVRational }
%struct.AVRational = type { i32, i32 }
%struct.AVCodecParameters = type { i32, i32, i32, ptr, i32, ptr, i32, i32, i64, i32, i32, i32, i32, i32, i32, %struct.AVRational, %struct.AVRational, i32, i32, i32, i32, i32, i32, i32, %struct.AVChannelLayout, i32, i32, i32, i32, i32, i32 }
%struct.AVChannelLayout = type { i32, i32, %union.anon, ptr }
%union.anon = type { i64 }
%struct.FFStream = type { %struct.AVStream, ptr, i32, ptr, i32, ptr, i32, %struct.anon, i32, i32, %struct.FFFrac, ptr, ptr, i32, i32, i64, i64, i32, i32, i32, i64, i64, i64, i32, i64, i64, i64, i32, i32, [17 x i64], [17 x i8], [17 x i64], i64, i8, i8, %struct.AVRational, %struct.AVProbeData, ptr, i64, i32, i32, i32, ptr, i32, i32, i64, i64, ptr, %struct.AVRational }
%struct.anon = type { ptr, i32 }
%struct.FFFrac = type { i64, i64, i64 }

@.str.2 = private unnamed_addr constant [39 x i8] c"Header claims %dbpp (!= 16). Ignoring\0A\00", align 1
@.str.3 = private unnamed_addr constant [95 x i8] c"width or height or segment_size is invalid and I cannot calculate them from other information\0A\00", align 1
@.str.4 = private unnamed_addr constant [24 x i8] c"MTV files without audio\00", align 1
@.str.5 = private unnamed_addr constant [9 x i8] c"BottomUp\00", align 1

; Function Attrs: alwaysinline nounwind uwtable
define internal ptr @ffstream(ptr noundef %0) #3 {
  %2 = alloca ptr, align 8
  store ptr %0, ptr %2, align 8, !tbaa !49
  %3 = load ptr, ptr %2, align 8, !tbaa !49
  ret ptr %3
}

; Function Attrs: nounwind uwtable
define internal i32 @mtv_read_header(ptr noundef %0) #0 {
  %2 = alloca i32, align 4
  %3 = alloca ptr, align 8
  %4 = alloca ptr, align 8
  %5 = alloca ptr, align 8
  %6 = alloca ptr, align 8
  %7 = alloca i32, align 4
  %8 = alloca i32, align 4
  store ptr %0, ptr %3, align 8, !tbaa !15
  call void @llvm.lifetime.start.p0(i64 8, ptr %4) #4
  %9 = load ptr, ptr %3, align 8, !tbaa !15
  %10 = getelementptr inbounds nuw %struct.AVFormatContext, ptr %9, i32 0, i32 3
  %11 = load ptr, ptr %10, align 8, !tbaa !17
  store ptr %11, ptr %4, align 8, !tbaa !32
  call void @llvm.lifetime.start.p0(i64 8, ptr %5) #4
  %12 = load ptr, ptr %3, align 8, !tbaa !15
  %13 = getelementptr inbounds nuw %struct.AVFormatContext, ptr %12, i32 0, i32 4
  %14 = load ptr, ptr %13, align 8, !tbaa !34
  store ptr %14, ptr %5, align 8, !tbaa !35
  call void @llvm.lifetime.start.p0(i64 8, ptr %6) #4
  call void @llvm.lifetime.start.p0(i64 4, ptr %7) #4
  %15 = load ptr, ptr %5, align 8, !tbaa !35
  %16 = call i64 @avio_skip(ptr noundef %15, i64 noundef 3)
  %17 = load ptr, ptr %5, align 8, !tbaa !35
  %18 = call i32 @avio_rl32(ptr noundef %17)
  %19 = load ptr, ptr %4, align 8, !tbaa !32
  %20 = getelementptr inbounds nuw %struct.MTVDemuxContext, ptr %19, i32 0, i32 0
  store i32 %18, ptr %20, align 4, !tbaa !36
  %21 = load ptr, ptr %5, align 8, !tbaa !35
  %22 = call i32 @avio_rl32(ptr noundef %21)
  %23 = load ptr, ptr %4, align 8, !tbaa !32
  %24 = getelementptr inbounds nuw %struct.MTVDemuxContext, ptr %23, i32 0, i32 1
  store i32 %22, ptr %24, align 4, !tbaa !38
  %25 = load ptr, ptr %5, align 8, !tbaa !35
  %26 = call i64 @avio_skip(ptr noundef %25, i64 noundef 32)
  %27 = load ptr, ptr %5, align 8, !tbaa !35
  %28 = call i32 @avio_rl24(ptr noundef %27)
  %29 = load ptr, ptr %4, align 8, !tbaa !32
  %30 = getelementptr inbounds nuw %struct.MTVDemuxContext, ptr %29, i32 0, i32 2
  store i32 %28, ptr %30, align 4, !tbaa !39
  %31 = load ptr, ptr %5, align 8, !tbaa !35
  %32 = call i32 @avio_rl16(ptr noundef %31)
  %33 = load ptr, ptr %4, align 8, !tbaa !32
  %34 = getelementptr inbounds nuw %struct.MTVDemuxContext, ptr %33, i32 0, i32 3
  store i32 %32, ptr %34, align 4, !tbaa !40
  %35 = load ptr, ptr %5, align 8, !tbaa !35
  %36 = call i32 @avio_rl24(ptr noundef %35)
  %37 = load ptr, ptr %4, align 8, !tbaa !32
  %38 = getelementptr inbounds nuw %struct.MTVDemuxContext, ptr %37, i32 0, i32 4
  store i32 %36, ptr %38, align 4, !tbaa !41
  %39 = load ptr, ptr %5, align 8, !tbaa !35
  %40 = call i32 @avio_r8(ptr noundef %39)
  %41 = load ptr, ptr %4, align 8, !tbaa !32
  %42 = getelementptr inbounds nuw %struct.MTVDemuxContext, ptr %41, i32 0, i32 5
  store i32 %40, ptr %42, align 4, !tbaa !42
  %43 = load ptr, ptr %5, align 8, !tbaa !35
  %44 = call i32 @avio_rl16(ptr noundef %43)
  %45 = load ptr, ptr %4, align 8, !tbaa !32
  %46 = getelementptr inbounds nuw %struct.MTVDemuxContext, ptr %45, i32 0, i32 6
  store i32 %44, ptr %46, align 4, !tbaa !43
  %47 = load ptr, ptr %5, align 8, !tbaa !35
  %48 = call i32 @avio_rl16(ptr noundef %47)
  %49 = load ptr, ptr %4, align 8, !tbaa !32
  %50 = getelementptr inbounds nuw %struct.MTVDemuxContext, ptr %49, i32 0, i32 7
  store i32 %48, ptr %50, align 4, !tbaa !44
  %51 = load ptr, ptr %5, align 8, !tbaa !35
  %52 = call i32 @avio_rl16(ptr noundef %51)
  %53 = load ptr, ptr %4, align 8, !tbaa !32
  %54 = getelementptr inbounds nuw %struct.MTVDemuxContext, ptr %53, i32 0, i32 8
  store i32 %52, ptr %54, align 4, !tbaa !45
  %55 = load ptr, ptr %4, align 8, !tbaa !32
  %56 = getelementptr inbounds nuw %struct.MTVDemuxContext, ptr %55, i32 0, i32 5
  %57 = load i32, ptr %56, align 4, !tbaa !42
  %58 = icmp ne i32 %57, 16
  br i1 %58, label %59, label %66

59:                                               ; preds = %1
  %60 = load ptr, ptr %3, align 8, !tbaa !15
  %61 = load ptr, ptr %4, align 8, !tbaa !32
  %62 = getelementptr inbounds nuw %struct.MTVDemuxContext, ptr %61, i32 0, i32 5
  %63 = load i32, ptr %62, align 4, !tbaa !42
  call void (ptr, i32, ptr, ...) @av_log(ptr noundef %60, i32 noundef 24, ptr noundef @.str.2, i32 noundef %63)
  %64 = load ptr, ptr %4, align 8, !tbaa !32
  %65 = getelementptr inbounds nuw %struct.MTVDemuxContext, ptr %64, i32 0, i32 5
  store i32 16, ptr %65, align 4, !tbaa !42
  br label %66

66:                                               ; preds = %59, %1
  %67 = load ptr, ptr %4, align 8, !tbaa !32
  %68 = getelementptr inbounds nuw %struct.MTVDemuxContext, ptr %67, i32 0, i32 6
  %69 = load i32, ptr %68, align 4, !tbaa !43
  %70 = icmp ne i32 %69, 0
  br i1 %70, label %96, label %71

71:                                               ; preds = %66
  %72 = load ptr, ptr %4, align 8, !tbaa !32
  %73 = getelementptr inbounds nuw %struct.MTVDemuxContext, ptr %72, i32 0, i32 7
  %74 = load i32, ptr %73, align 4, !tbaa !44
  %75 = icmp ugt i32 %74, 0
  br i1 %75, label %76, label %96

76:                                               ; preds = %71
  %77 = load ptr, ptr %4, align 8, !tbaa !32
  %78 = getelementptr inbounds nuw %struct.MTVDemuxContext, ptr %77, i32 0, i32 5
  %79 = load i32, ptr %78, align 4, !tbaa !42
  %80 = icmp uge i32 %79, 8
  br i1 %80, label %81, label %96

81:                                               ; preds = %76
  %82 = load ptr, ptr %4, align 8, !tbaa !32
  %83 = getelementptr inbounds nuw %struct.MTVDemuxContext, ptr %82, i32 0, i32 8
  %84 = load i32, ptr %83, align 4, !tbaa !45
  %85 = load ptr, ptr %4, align 8, !tbaa !32
  %86 = getelementptr inbounds nuw %struct.MTVDemuxContext, ptr %85, i32 0, i32 5
  %87 = load i32, ptr %86, align 4, !tbaa !42
  %88 = lshr i32 %87, 3
  %89 = udiv i32 %84, %88
  %90 = load ptr, ptr %4, align 8, !tbaa !32
  %91 = getelementptr inbounds nuw %struct.MTVDemuxContext, ptr %90, i32 0, i32 7
  %92 = load i32, ptr %91, align 4, !tbaa !44
  %93 = udiv i32 %89, %92
  %94 = load ptr, ptr %4, align 8, !tbaa !32
  %95 = getelementptr inbounds nuw %struct.MTVDemuxContext, ptr %94, i32 0, i32 6
  store i32 %93, ptr %95, align 4, !tbaa !43
  br label %96

96:                                               ; preds = %81, %76, %71, %66
  %97 = load ptr, ptr %4, align 8, !tbaa !32
  %98 = getelementptr inbounds nuw %struct.MTVDemuxContext, ptr %97, i32 0, i32 7
  %99 = load i32, ptr %98, align 4, !tbaa !44
  %100 = icmp ne i32 %99, 0
  br i1 %100, label %126, label %101

101:                                              ; preds = %96
  %102 = load ptr, ptr %4, align 8, !tbaa !32
  %103 = getelementptr inbounds nuw %struct.MTVDemuxContext, ptr %102, i32 0, i32 6
  %104 = load i32, ptr %103, align 4, !tbaa !43
  %105 = icmp ugt i32 %104, 0
  br i1 %105, label %106, label %126

106:                                              ; preds = %101
  %107 = load ptr, ptr %4, align 8, !tbaa !32
  %108 = getelementptr inbounds nuw %struct.MTVDemuxContext, ptr %107, i32 0, i32 5
  %109 = load i32, ptr %108, align 4, !tbaa !42
  %110 = icmp uge i32 %109, 8
  br i1 %110, label %111, label %126

111:                                              ; preds = %106
  %112 = load ptr, ptr %4, align 8, !tbaa !32
  %113 = getelementptr inbounds nuw %struct.MTVDemuxContext, ptr %112, i32 0, i32 8
  %114 = load i32, ptr %113, align 4, !tbaa !45
  %115 = load ptr, ptr %4, align 8, !tbaa !32
  %116 = getelementptr inbounds nuw %struct.MTVDemuxContext, ptr %115, i32 0, i32 5
  %117 = load i32, ptr %116, align 4, !tbaa !42
  %118 = lshr i32 %117, 3
  %119 = udiv i32 %114, %118
  %120 = load ptr, ptr %4, align 8, !tbaa !32
  %121 = getelementptr inbounds nuw %struct.MTVDemuxContext, ptr %120, i32 0, i32 6
  %122 = load i32, ptr %121, align 4, !tbaa !43
  %123 = udiv i32 %119, %122
  %124 = load ptr, ptr %4, align 8, !tbaa !32
  %125 = getelementptr inbounds nuw %struct.MTVDemuxContext, ptr %124, i32 0, i32 7
  store i32 %123, ptr %125, align 4, !tbaa !44
  br label %126

126:                                              ; preds = %111, %106, %101, %96
  %127 = load ptr, ptr %4, align 8, !tbaa !32
  %128 = getelementptr inbounds nuw %struct.MTVDemuxContext, ptr %127, i32 0, i32 7
  %129 = load i32, ptr %128, align 4, !tbaa !44
  %130 = icmp ne i32 %129, 0
  br i1 %130, label %131, label %141

131:                                              ; preds = %126
  %132 = load ptr, ptr %4, align 8, !tbaa !32
  %133 = getelementptr inbounds nuw %struct.MTVDemuxContext, ptr %132, i32 0, i32 6
  %134 = load i32, ptr %133, align 4, !tbaa !43
  %135 = icmp ne i32 %134, 0
  br i1 %135, label %136, label %141

136:                                              ; preds = %131
  %137 = load ptr, ptr %4, align 8, !tbaa !32
  %138 = getelementptr inbounds nuw %struct.MTVDemuxContext, ptr %137, i32 0, i32 8
  %139 = load i32, ptr %138, align 4, !tbaa !45
  %140 = icmp ne i32 %139, 0
  br i1 %140, label %143, label %141

141:                                              ; preds = %136, %131, %126
  %142 = load ptr, ptr %3, align 8, !tbaa !15
  call void (ptr, i32, ptr, ...) @av_log(ptr noundef %142, i32 noundef 16, ptr noundef @.str.3)
  store i32 -1094995529, ptr %2, align 4
  store i32 1, ptr %8, align 4
  br label %253

143:                                              ; preds = %136
  %144 = load ptr, ptr %5, align 8, !tbaa !35
  %145 = call i64 @avio_skip(ptr noundef %144, i64 noundef 4)
  %146 = load ptr, ptr %5, align 8, !tbaa !35
  %147 = call i32 @avio_rl16(ptr noundef %146)
  store i32 %147, ptr %7, align 4, !tbaa !46
  %148 = load i32, ptr %7, align 4, !tbaa !46
  %149 = icmp eq i32 %148, 0
  br i1 %149, label %150, label %152

150:                                              ; preds = %143
  %151 = load ptr, ptr %3, align 8, !tbaa !15
  call void (ptr, ptr, ...) @avpriv_request_sample(ptr noundef %151, ptr noundef @.str.4)
  store i32 -1163346256, ptr %2, align 4
  store i32 1, ptr %8, align 4
  br label %253

152:                                              ; preds = %143
  %153 = load i32, ptr %7, align 4, !tbaa !46
  %154 = mul i32 %153, 512
  %155 = load ptr, ptr %4, align 8, !tbaa !32
  %156 = getelementptr inbounds nuw %struct.MTVDemuxContext, ptr %155, i32 0, i32 8
  %157 = load i32, ptr %156, align 4, !tbaa !45
  %158 = add i32 %154, %157
  %159 = load ptr, ptr %4, align 8, !tbaa !32
  %160 = getelementptr inbounds nuw %struct.MTVDemuxContext, ptr %159, i32 0, i32 10
  store i32 %158, ptr %160, align 4, !tbaa !47
  %161 = load ptr, ptr %4, align 8, !tbaa !32
  %162 = getelementptr inbounds nuw %struct.MTVDemuxContext, ptr %161, i32 0, i32 3
  %163 = load i32, ptr %162, align 4, !tbaa !40
  %164 = udiv i32 %163, 4
  %165 = load i32, ptr %7, align 4, !tbaa !46
  %166 = udiv i32 %164, %165
  %167 = load ptr, ptr %4, align 8, !tbaa !32
  %168 = getelementptr inbounds nuw %struct.MTVDemuxContext, ptr %167, i32 0, i32 9
  store i32 %166, ptr %168, align 4, !tbaa !48
  %169 = load ptr, ptr %3, align 8, !tbaa !15
  %170 = call ptr @avformat_new_stream(ptr noundef %169, ptr noundef null)
  store ptr %170, ptr %6, align 8, !tbaa !49
  %171 = load ptr, ptr %6, align 8, !tbaa !49
  %172 = icmp ne ptr %171, null
  br i1 %172, label %174, label %173

173:                                              ; preds = %152
  store i32 -12, ptr %2, align 4
  store i32 1, ptr %8, align 4
  br label %253

174:                                              ; preds = %152
  %175 = load ptr, ptr %6, align 8, !tbaa !49
  %176 = load ptr, ptr %4, align 8, !tbaa !32
  %177 = getelementptr inbounds nuw %struct.MTVDemuxContext, ptr %176, i32 0, i32 9
  %178 = load i32, ptr %177, align 4, !tbaa !48
  call void @avpriv_set_pts_info(ptr noundef %175, i32 noundef 64, i32 noundef 1, i32 noundef %178)
  %179 = load ptr, ptr %6, align 8, !tbaa !49
  %180 = getelementptr inbounds nuw %struct.AVStream, ptr %179, i32 0, i32 3
  %181 = load ptr, ptr %180, align 8, !tbaa !51
  %182 = getelementptr inbounds nuw %struct.AVCodecParameters, ptr %181, i32 0, i32 0
  store i32 0, ptr %182, align 8, !tbaa !58
  %183 = load ptr, ptr %6, align 8, !tbaa !49
  %184 = getelementptr inbounds nuw %struct.AVStream, ptr %183, i32 0, i32 3
  %185 = load ptr, ptr %184, align 8, !tbaa !51
  %186 = getelementptr inbounds nuw %struct.AVCodecParameters, ptr %185, i32 0, i32 1
  store i32 13, ptr %186, align 4, !tbaa !61
  %187 = load ptr, ptr %6, align 8, !tbaa !49
  %188 = getelementptr inbounds nuw %struct.AVStream, ptr %187, i32 0, i32 3
  %189 = load ptr, ptr %188, align 8, !tbaa !51
  %190 = getelementptr inbounds nuw %struct.AVCodecParameters, ptr %189, i32 0, i32 7
  store i32 36, ptr %190, align 4, !tbaa !62
  %191 = load ptr, ptr %4, align 8, !tbaa !32
  %192 = getelementptr inbounds nuw %struct.MTVDemuxContext, ptr %191, i32 0, i32 6
  %193 = load i32, ptr %192, align 4, !tbaa !43
  %194 = load ptr, ptr %6, align 8, !tbaa !49
  %195 = getelementptr inbounds nuw %struct.AVStream, ptr %194, i32 0, i32 3
  %196 = load ptr, ptr %195, align 8, !tbaa !51
  %197 = getelementptr inbounds nuw %struct.AVCodecParameters, ptr %196, i32 0, i32 13
  store i32 %193, ptr %197, align 8, !tbaa !63
  %198 = load ptr, ptr %4, align 8, !tbaa !32
  %199 = getelementptr inbounds nuw %struct.MTVDemuxContext, ptr %198, i32 0, i32 7
  %200 = load i32, ptr %199, align 4, !tbaa !44
  %201 = load ptr, ptr %6, align 8, !tbaa !49
  %202 = getelementptr inbounds nuw %struct.AVStream, ptr %201, i32 0, i32 3
  %203 = load ptr, ptr %202, align 8, !tbaa !51
  %204 = getelementptr inbounds nuw %struct.AVCodecParameters, ptr %203, i32 0, i32 14
  store i32 %200, ptr %204, align 4, !tbaa !64
  %205 = call noalias ptr @av_strdup(ptr noundef @.str.5)
  %206 = load ptr, ptr %6, align 8, !tbaa !49
  %207 = getelementptr inbounds nuw %struct.AVStream, ptr %206, i32 0, i32 3
  %208 = load ptr, ptr %207, align 8, !tbaa !51
  %209 = getelementptr inbounds nuw %struct.AVCodecParameters, ptr %208, i32 0, i32 3
  store ptr %205, ptr %209, align 8, !tbaa !65
  %210 = load ptr, ptr %6, align 8, !tbaa !49
  %211 = getelementptr inbounds nuw %struct.AVStream, ptr %210, i32 0, i32 3
  %212 = load ptr, ptr %211, align 8, !tbaa !51
  %213 = getelementptr inbounds nuw %struct.AVCodecParameters, ptr %212, i32 0, i32 3
  %214 = load ptr, ptr %213, align 8, !tbaa !65
  %215 = icmp ne ptr %214, null
  br i1 %215, label %217, label %216

216:                                              ; preds = %174
  store i32 -12, ptr %2, align 4
  store i32 1, ptr %8, align 4
  br label %253

217:                                              ; preds = %174
  %218 = load ptr, ptr %6, align 8, !tbaa !49
  %219 = getelementptr inbounds nuw %struct.AVStream, ptr %218, i32 0, i32 3
  %220 = load ptr, ptr %219, align 8, !tbaa !51
  %221 = getelementptr inbounds nuw %struct.AVCodecParameters, ptr %220, i32 0, i32 4
  store i32 9, ptr %221, align 8, !tbaa !66
  %222 = load ptr, ptr %3, align 8, !tbaa !15
  %223 = call ptr @avformat_new_stream(ptr noundef %222, ptr noundef null)
  store ptr %223, ptr %6, align 8, !tbaa !49
  %224 = load ptr, ptr %6, align 8, !tbaa !49
  %225 = icmp ne ptr %224, null
  br i1 %225, label %227, label %226

226:                                              ; preds = %217
  store i32 -12, ptr %2, align 4
  store i32 1, ptr %8, align 4
  br label %253

227:                                              ; preds = %217
  %228 = load ptr, ptr %6, align 8, !tbaa !49
  call void @avpriv_set_pts_info(ptr noundef %228, i32 noundef 64, i32 noundef 1, i32 noundef 44100)
  %229 = load ptr, ptr %6, align 8, !tbaa !49
  %230 = getelementptr inbounds nuw %struct.AVStream, ptr %229, i32 0, i32 3
  %231 = load ptr, ptr %230, align 8, !tbaa !51
  %232 = getelementptr inbounds nuw %struct.AVCodecParameters, ptr %231, i32 0, i32 0
  store i32 1, ptr %232, align 8, !tbaa !58
  %233 = load ptr, ptr %6, align 8, !tbaa !49
  %234 = getelementptr inbounds nuw %struct.AVStream, ptr %233, i32 0, i32 3
  %235 = load ptr, ptr %234, align 8, !tbaa !51
  %236 = getelementptr inbounds nuw %struct.AVCodecParameters, ptr %235, i32 0, i32 1
  store i32 86017, ptr %236, align 4, !tbaa !61
  %237 = load ptr, ptr %4, align 8, !tbaa !32
  %238 = getelementptr inbounds nuw %struct.MTVDemuxContext, ptr %237, i32 0, i32 3
  %239 = load i32, ptr %238, align 4, !tbaa !40
  %240 = zext i32 %239 to i64
  %241 = load ptr, ptr %6, align 8, !tbaa !49
  %242 = getelementptr inbounds nuw %struct.AVStream, ptr %241, i32 0, i32 3
  %243 = load ptr, ptr %242, align 8, !tbaa !51
  %244 = getelementptr inbounds nuw %struct.AVCodecParameters, ptr %243, i32 0, i32 8
  store i64 %240, ptr %244, align 8, !tbaa !67
  %245 = load ptr, ptr %6, align 8, !tbaa !49
  %246 = call ptr @ffstream(ptr noundef %245)
  %247 = getelementptr inbounds nuw %struct.FFStream, ptr %246, i32 0, i32 41
  store i32 1, ptr %247, align 8, !tbaa !68
  %248 = load ptr, ptr %5, align 8, !tbaa !35
  %249 = call i64 @avio_seek(ptr noundef %248, i64 noundef 512, i32 noundef 0)
  %250 = icmp ne i64 %249, 512
  br i1 %250, label %251, label %252

251:                                              ; preds = %227
  store i32 -5, ptr %2, align 4
  store i32 1, ptr %8, align 4
  br label %253

252:                                              ; preds = %227
  store i32 0, ptr %2, align 4
  store i32 1, ptr %8, align 4
  br label %253

253:                                              ; preds = %252, %251, %226, %216, %173, %150, %141
  call void @llvm.lifetime.end.p0(i64 4, ptr %7) #4
  call void @llvm.lifetime.end.p0(i64 8, ptr %6) #4
  call void @llvm.lifetime.end.p0(i64 8, ptr %5) #4
  call void @llvm.lifetime.end.p0(i64 8, ptr %4) #4
  %254 = load i32, ptr %2, align 4
  ret i32 %254
}