; Function Attrs: nounwind uwtable
define internal range(i32 -1163346256, 1) i32 @mtv_read_header(ptr noundef %0) #1 {
  %2 = getelementptr inbounds nuw i8, ptr %0, i64 24
  %3 = load ptr, ptr %2, align 8, !tbaa !13
  %4 = getelementptr inbounds nuw i8, ptr %0, i64 32
  %5 = load ptr, ptr %4, align 8, !tbaa !28
  %6 = tail call i64 @avio_skip(ptr noundef %5, i64 noundef 3) #3
  %7 = tail call i32 @avio_rl32(ptr noundef %5) #3
  store i32 %7, ptr %3, align 4, !tbaa !29
  %8 = tail call i32 @avio_rl32(ptr noundef %5) #3
  %9 = getelementptr inbounds nuw i8, ptr %3, i64 4
  store i32 %8, ptr %9, align 4, !tbaa !31
  %10 = tail call i64 @avio_skip(ptr noundef %5, i64 noundef 32) #3
  %11 = tail call i32 @avio_rl24(ptr noundef %5) #3
  %12 = getelementptr inbounds nuw i8, ptr %3, i64 8
  store i32 %11, ptr %12, align 4, !tbaa !32
  %13 = tail call i32 @avio_rl16(ptr noundef %5) #3
  %14 = getelementptr inbounds nuw i8, ptr %3, i64 12
  store i32 %13, ptr %14, align 4, !tbaa !33
  %15 = tail call i32 @avio_rl24(ptr noundef %5) #3
  %16 = getelementptr inbounds nuw i8, ptr %3, i64 16
  store i32 %15, ptr %16, align 4, !tbaa !34
  %17 = tail call i32 @avio_r8(ptr noundef %5) #3
  %18 = getelementptr inbounds nuw i8, ptr %3, i64 20
  store i32 %17, ptr %18, align 4, !tbaa !35
  %19 = tail call i32 @avio_rl16(ptr noundef %5) #3
  %20 = getelementptr inbounds nuw i8, ptr %3, i64 24
  store i32 %19, ptr %20, align 4, !tbaa !36
  %21 = tail call i32 @avio_rl16(ptr noundef %5) #3
  %22 = getelementptr inbounds nuw i8, ptr %3, i64 28
  store i32 %21, ptr %22, align 4, !tbaa !37
  %23 = tail call i32 @avio_rl16(ptr noundef %5) #3
  %24 = getelementptr inbounds nuw i8, ptr %3, i64 32
  store i32 %23, ptr %24, align 4, !tbaa !38
  %25 = load i32, ptr %18, align 4, !tbaa !35
  %.not = icmp eq i32 %25, 16
  br i1 %.not, label %27, label %26

26:                                               ; preds = %1
  tail call void (ptr, i32, ptr, ...) @av_log(ptr noundef nonnull %0, i32 noundef 24, ptr noundef nonnull @.str.2, i32 noundef %25) #3
  store i32 16, ptr %18, align 4, !tbaa !35
  br label %27

27:                                               ; preds = %26, %1
  %28 = load i32, ptr %20, align 4, !tbaa !36
  %.not85 = icmp eq i32 %28, 0
  %.pr.pre = load i32, ptr %22, align 4, !tbaa !37
  %.not86 = icmp eq i32 %.pr.pre, 0
  br i1 %.not85, label %29, label %30

29:                                               ; preds = %27
  br i1 %.not86, label %thread-pre-split99.thread, label %.thread101

30:                                               ; preds = %27
  br i1 %.not86, label %thread-pre-split99, label %.thread101.thread

thread-pre-split99:                               ; preds = %30
  %31 = load i32, ptr %24, align 4, !tbaa !38
  %32 = lshr i32 %31, 1
  %33 = udiv i32 %32, %28
  store i32 %33, ptr %22, align 4, !tbaa !37
  %.not89 = icmp ugt i32 %28, %32
  br i1 %.not89, label %thread-pre-split99.thread, label %.thread101.thread

.thread101.thread:                                ; preds = %30, %thread-pre-split99
  %.pr = load i32, ptr %24, align 4, !tbaa !38
  br label %37

.thread101:                                       ; preds = %29
  %34 = load i32, ptr %24, align 4, !tbaa !38
  %35 = lshr i32 %34, 1
  %36 = udiv i32 %35, %.pr.pre
  store i32 %36, ptr %20, align 4, !tbaa !36
  %.not90 = icmp ugt i32 %.pr.pre, %35
  br i1 %.not90, label %thread-pre-split99.thread, label %37

37:                                               ; preds = %.thread101.thread, %.thread101
  %38 = phi i32 [ %.pr, %.thread101.thread ], [ %34, %.thread101 ]
  %.not91 = icmp eq i32 %38, 0
  br i1 %.not91, label %thread-pre-split99.thread, label %39

thread-pre-split99.thread:                        ; preds = %29, %37, %.thread101, %thread-pre-split99
  tail call void (ptr, i32, ptr, ...) @av_log(ptr noundef nonnull %0, i32 noundef 16, ptr noundef nonnull @.str.3) #3
  br label %79

39:                                               ; preds = %37
  %40 = tail call i64 @avio_skip(ptr noundef %5, i64 noundef 4) #3
  %41 = tail call i32 @avio_rl16(ptr noundef %5) #3
  %42 = icmp eq i32 %41, 0
  br i1 %42, label %43, label %44

43:                                               ; preds = %39
  tail call void (ptr, ptr, ...) @avpriv_request_sample(ptr noundef nonnull %0, ptr noundef nonnull @.str.4) #3
  br label %79

44:                                               ; preds = %39
  %45 = shl i32 %41, 9
  %46 = load i32, ptr %24, align 4, !tbaa !38
  %47 = add i32 %46, %45
  %48 = getelementptr inbounds nuw i8, ptr %3, i64 40
  store i32 %47, ptr %48, align 4, !tbaa !39
  %49 = load i32, ptr %14, align 4, !tbaa !33
  %50 = lshr i32 %49, 2
  %51 = udiv i32 %50, %41
  %52 = getelementptr inbounds nuw i8, ptr %3, i64 36
  store i32 %51, ptr %52, align 4, !tbaa !40
  %53 = tail call ptr @avformat_new_stream(ptr noundef nonnull %0, ptr noundef null) #3
  %.not92 = icmp eq ptr %53, null
  br i1 %.not92, label %79, label %54

54:                                               ; preds = %44
  %55 = load i32, ptr %52, align 4, !tbaa !40
  tail call void @avpriv_set_pts_info(ptr noundef nonnull %53, i32 noundef 64, i32 noundef 1, i32 noundef %55) #3
  %56 = getelementptr inbounds nuw i8, ptr %53, i64 16
  %57 = load ptr, ptr %56, align 8, !tbaa !41
  store i32 0, ptr %57, align 8, !tbaa !48
  %58 = getelementptr inbounds nuw i8, ptr %57, i64 4
  store i32 13, ptr %58, align 4, !tbaa !51
  %59 = getelementptr inbounds nuw i8, ptr %57, i64 44
  store i32 36, ptr %59, align 4, !tbaa !52
  %60 = load i32, ptr %20, align 4, !tbaa !36
  %61 = getelementptr inbounds nuw i8, ptr %57, i64 72
  store i32 %60, ptr %61, align 8, !tbaa !53
  %62 = load i32, ptr %22, align 4, !tbaa !37
  %63 = getelementptr inbounds nuw i8, ptr %57, i64 76
  store i32 %62, ptr %63, align 4, !tbaa !54
  %64 = tail call noalias ptr @av_strdup(ptr noundef nonnull @.str.5) #3
  %65 = load ptr, ptr %56, align 8, !tbaa !41
  %66 = getelementptr inbounds nuw i8, ptr %65, i64 16
  store ptr %64, ptr %66, align 8, !tbaa !55
  %.not93 = icmp eq ptr %64, null
  br i1 %.not93, label %79, label %67

67:                                               ; preds = %54
  %68 = getelementptr inbounds nuw i8, ptr %65, i64 24
  store i32 9, ptr %68, align 8, !tbaa !56
  %69 = tail call ptr @avformat_new_stream(ptr noundef nonnull %0, ptr noundef null) #3
  %.not94 = icmp eq ptr %69, null
  br i1 %.not94, label %79, label %70

70:                                               ; preds = %67
  tail call void @avpriv_set_pts_info(ptr noundef nonnull %69, i32 noundef 64, i32 noundef 1, i32 noundef 44100) #3
  %71 = getelementptr inbounds nuw i8, ptr %69, i64 16
  %72 = load ptr, ptr %71, align 8, !tbaa !41
  store i32 1, ptr %72, align 8, !tbaa !48
  %73 = getelementptr inbounds nuw i8, ptr %72, i64 4
  store i32 86017, ptr %73, align 4, !tbaa !51
  %74 = load i32, ptr %14, align 4, !tbaa !33
  %75 = zext i32 %74 to i64
  %76 = getelementptr inbounds nuw i8, ptr %72, i64 48
  store i64 %75, ptr %76, align 8, !tbaa !57
  %77 = getelementptr inbounds nuw i8, ptr %69, i64 808
  store i32 1, ptr %77, align 8, !tbaa !58
  %78 = tail call i64 @avio_seek(ptr noundef %5, i64 noundef 512, i32 noundef 0) #3
  %.not95 = icmp eq i64 %78, 512
  %. = select i1 %.not95, i32 0, i32 -5
  br label %79

79:                                               ; preds = %70, %67, %54, %44, %43, %thread-pre-split99.thread
  %.0 = phi i32 [ -1163346256, %43 ], [ -1094995529, %thread-pre-split99.thread ], [ -12, %44 ], [ -12, %54 ], [ -12, %67 ], [ %., %70 ]
  ret i32 %.0
}